target datalayout = "e-m:e-p270:32:32-p271:32:32-p272:64:64-i64:64-i128:128-f80:128-n8:16:32:64-S128"
target triple = "x86_64-pc-linux-gnu"

%struct._plugin_args = type { ptr, ptr }
%struct.slurm_select_ops_t = type { ptr, ptr, ptr, ptr, ptr, ptr, ptr, ptr, ptr, ptr, ptr, ptr, ptr, ptr, ptr, ptr, ptr, ptr, ptr, ptr, ptr, ptr, ptr, ptr, ptr, ptr, ptr, ptr, ptr, ptr, ptr, ptr }

@select_context = internal global ptr null, align 8
@select_context_cnt = internal global i32 -1, align 4
@ops = internal global ptr null, align 8
@select_context_default = internal global i32 -1, align 4

; Function Attrs: nounwind uwtable
define internal i32 @_load_plugins(ptr noundef %0, ptr noundef %1) #0 {
  %3 = alloca ptr, align 8
  %4 = alloca ptr, align 8
  %5 = alloca ptr, align 8
  %6 = alloca ptr, align 8
  store ptr %0, ptr %3, align 8
  store ptr %1, ptr %4, align 8
  call void @llvm.lifetime.start.p0(i64 8, ptr %5) #7
  %7 = load ptr, ptr %3, align 8
  store ptr %7, ptr %5, align 8
  call void @llvm.lifetime.start.p0(i64 8, ptr %6) #7
  %8 = load ptr, ptr %4, align 8
  store ptr %8, ptr %6, align 8
  %9 = load ptr, ptr %6, align 8
  %10 = getelementptr inbounds nuw %struct._plugin_args, ptr %9, i32 0, i32 0
  %11 = load ptr, ptr %10, align 8
  %12 = load ptr, ptr %5, align 8
  %13 = load ptr, ptr @ops, align 8
  %14 = load i32, ptr @select_context_cnt, align 4
  %15 = sext i32 %14 to i64
  %16 = getelementptr inbounds %struct.slurm_select_ops_t, ptr %13, i64 %15
  %17 = call ptr @plugin_context_create(ptr noundef %11, ptr noundef %12, ptr noundef %16, ptr noundef @node_select_syms, i64 noundef 256)
  %18 = load ptr, ptr @select_context, align 8
  %19 = load i32, ptr @select_context_cnt, align 4
  %20 = sext i32 %19 to i64
  %21 = getelementptr inbounds ptr, ptr %18, i64 %20
  store ptr %17, ptr %21, align 8
  %22 = load ptr, ptr @select_context, align 8
  %23 = load i32, ptr @select_context_cnt, align 4
  %24 = sext i32 %23 to i64
  %25 = getelementptr inbounds ptr, ptr %22, i64 %24
  %26 = load ptr, ptr %25, align 8
  %27 = icmp ne ptr %26, null
  br i1 %27, label %28, label %40

28:                                               ; preds = %2
  %29 = load ptr, ptr %5, align 8
  %30 = load ptr, ptr %6, align 8
  %31 = getelementptr inbounds nuw %struct._plugin_args, ptr %30, i32 0, i32 1
  %32 = load ptr, ptr %31, align 8
  %33 = call i32 @xstrcmp(ptr noundef %29, ptr noundef %32)
  %34 = icmp ne i32 %33, 0
  br i1 %34, label %37, label %35

35:                                               ; preds = %28
  %36 = load i32, ptr @select_context_cnt, align 4
  store i32 %36, ptr @select_context_default, align 4
  br label %37

37:                                               ; preds = %35, %28
  %38 = load i32, ptr @select_context_cnt, align 4
  %39 = add nsw i32 %38, 1
  store i32 %39, ptr @select_context_cnt, align 4
  br label %40

40:                                               ; preds = %37, %2
  call void @llvm.lifetime.end.p0(i64 8, ptr %6) #7
  call void @llvm.lifetime.end.p0(i64 8, ptr %5) #7
  ret i32 0
}