; Function Attrs: nounwind uwtable
define internal noundef i32 @_load_plugins(ptr noundef %0, ptr noundef readonly captures(none) %1) #0 {
  %3 = load ptr, ptr %1, align 8
  %4 = load ptr, ptr @ops, align 8
  %5 = load i32, ptr @select_context_cnt, align 4
  %6 = sext i32 %5 to i64
  %7 = getelementptr inbounds %struct.slurm_select_ops_t, ptr %4, i64 %6
  %8 = tail call ptr @plugin_context_create(ptr noundef %3, ptr noundef %0, ptr noundef %7, ptr noundef nonnull @node_select_syms, i64 noundef 256) #15
  %9 = load ptr, ptr @select_context, align 8
  %10 = load i32, ptr @select_context_cnt, align 4
  %11 = sext i32 %10 to i64
  %12 = getelementptr inbounds ptr, ptr %9, i64 %11
  store ptr %8, ptr %12, align 8
  %13 = load ptr, ptr @select_context, align 8
  %14 = getelementptr inbounds ptr, ptr %13, i64 %11
  %15 = load ptr, ptr %14, align 8
  %.not = icmp eq ptr %15, null
  br i1 %.not, label %23, label %16

16:                                               ; preds = %2
  %17 = getelementptr inbounds nuw i8, ptr %1, i64 8
  %18 = load ptr, ptr %17, align 8
  %19 = tail call i32 @xstrcmp(ptr noundef %0, ptr noundef %18) #15
  %.not6 = icmp eq i32 %19, 0
  %.pre = load i32, ptr @select_context_cnt, align 4
  br i1 %.not6, label %20, label %21

20:                                               ; preds = %16
  store i32 %.pre, ptr @select_context_default, align 4
  br label %21

21:                                               ; preds = %20, %16
  %22 = add nsw i32 %.pre, 1
  store i32 %22, ptr @select_context_cnt, align 4
  br label %23

23:                                               ; preds = %21, %2
  ret i32 0
}